target datalayout = "e-m:e-p270:32:32-p271:32:32-p272:64:64-i64:64-i128:128-f80:128-n8:16:32:64-S128"
target triple = "x86_64-pc-linux-gnu"

%struct._zend_string = type { %struct._zend_refcounted_h, i64, i64, [1 x i8] }
%struct._zend_refcounted_h = type { i32, %union.anon }
%union.anon = type { i32 }
%struct._zend_execute_data = type { ptr, ptr, ptr, ptr, %struct._zval_struct, ptr, ptr, ptr, ptr }
%struct._zval_struct = type { %union._zend_value, %union.anon.0, %union.anon.3 }
%union._zend_value = type { i64 }
%union.anon.0 = type { i32 }
%union.anon.3 = type { i32 }
%struct.anon.1 = type { i8, i8, %union.anon.2 }
%union.anon.2 = type { i16 }

; Function Attrs: alwaysinline nounwind uwtable
define internal zeroext i8 @zval_get_type(ptr noundef %0) #2 {
  %2 = alloca ptr, align 8
  store ptr %0, ptr %2, align 8, !tbaa !25
  %3 = load ptr, ptr %2, align 8, !tbaa !25
  %4 = getelementptr inbounds nuw %struct._zval_struct, ptr %3, i32 0, i32 1
  %5 = getelementptr inbounds nuw %struct.anon.1, ptr %4, i32 0, i32 0
  %6 = load i8, ptr %5, align 8, !tbaa !13
  ret i8 %6
}

; Function Attrs: alwaysinline nounwind uwtable
define internal zeroext i1 @zend_parse_arg_str_ex(ptr noundef %0, ptr noundef %1, i1 noundef zeroext %2, i32 noundef %3, i1 noundef zeroext %4) #2 {
  %6 = alloca i1, align 1
  %7 = alloca ptr, align 8
  %8 = alloca ptr, align 8
  %9 = alloca i8, align 1
  %10 = alloca i32, align 4
  %11 = alloca i8, align 1
  store ptr %0, ptr %7, align 8, !tbaa !25
  store ptr %1, ptr %8, align 8, !tbaa !28
  %12 = zext i1 %2 to i8
  store i8 %12, ptr %9, align 1, !tbaa !14
  store i32 %3, ptr %10, align 4, !tbaa !27
  %13 = zext i1 %4 to i8
  store i8 %13, ptr %11, align 1, !tbaa !14
  %14 = load ptr, ptr %7, align 8, !tbaa !25
  %15 = call zeroext i8 @zval_get_type(ptr noundef %14)
  %16 = zext i8 %15 to i32
  %17 = icmp eq i32 %16, 6
  %18 = xor i1 %17, true
  %19 = xor i1 %18, true
  %20 = zext i1 %19 to i32
  %21 = sext i32 %20 to i64
  %22 = call i64 @llvm.expect.i64(i64 %21, i64 1)
  %23 = icmp ne i64 %22, 0
  br i1 %23, label %24, label %29

24:                                               ; preds = %5
  %25 = load ptr, ptr %7, align 8, !tbaa !25
  %26 = getelementptr inbounds nuw %struct._zval_struct, ptr %25, i32 0, i32 0
  %27 = load ptr, ptr %26, align 8, !tbaa !13
  %28 = load ptr, ptr %8, align 8, !tbaa !28
  store ptr %27, ptr %28, align 8, !tbaa !11
  br label %53

29:                                               ; preds = %5
  %30 = load i8, ptr %9, align 1, !tbaa !14, !range !16, !noundef !17
  %31 = trunc i8 %30 to i1
  br i1 %31, label %32, label %39

32:                                               ; preds = %29
  %33 = load ptr, ptr %7, align 8, !tbaa !25
  %34 = call zeroext i8 @zval_get_type(ptr noundef %33)
  %35 = zext i8 %34 to i32
  %36 = icmp eq i32 %35, 1
  br i1 %36, label %37, label %39

37:                                               ; preds = %32
  %38 = load ptr, ptr %8, align 8, !tbaa !28
  store ptr null, ptr %38, align 8, !tbaa !11
  br label %52

39:                                               ; preds = %32, %29
  %40 = load i8, ptr %11, align 1, !tbaa !14, !range !16, !noundef !17
  %41 = trunc i8 %40 to i1
  br i1 %41, label %42, label %47

42:                                               ; preds = %39
  %43 = load ptr, ptr %7, align 8, !tbaa !25
  %44 = load ptr, ptr %8, align 8, !tbaa !28
  %45 = load i32, ptr %10, align 4, !tbaa !27
  %46 = call zeroext i1 @zend_flf_parse_arg_str_slow(ptr noundef %43, ptr noundef %44, i32 noundef %45)
  store i1 %46, ptr %6, align 1
  br label %54

47:                                               ; preds = %39
  %48 = load ptr, ptr %7, align 8, !tbaa !25
  %49 = load ptr, ptr %8, align 8, !tbaa !28
  %50 = load i32, ptr %10, align 4, !tbaa !27
  %51 = call zeroext i1 @zend_parse_arg_str_slow(ptr noundef %48, ptr noundef %49, i32 noundef %50)
  store i1 %51, ptr %6, align 1
  br label %54

52:                                               ; preds = %37
  br label %53

53:                                               ; preds = %52, %24
  store i1 true, ptr %6, align 1
  br label %54

54:                                               ; preds = %53, %47, %42
  %55 = load i1, ptr %6, align 1
  ret i1 %55
}

; Function Attrs: alwaysinline nounwind uwtable
define internal i32 @zval_gc_flags(i32 noundef %0) #2 {
  %2 = alloca i32, align 4
  store i32 %0, ptr %2, align 4, !tbaa !27
  %3 = load i32, ptr %2, align 4, !tbaa !27
  %4 = lshr i32 %3, 0
  %5 = and i32 %4, 1008
  ret i32 %5
}

; Function Attrs: alwaysinline nounwind uwtable
define internal zeroext i1 @zend_parse_arg_str(ptr noundef %0, ptr noundef %1, i1 noundef zeroext %2, i32 noundef %3) #2 {
  %5 = alloca ptr, align 8
  %6 = alloca ptr, align 8
  %7 = alloca i8, align 1
  %8 = alloca i32, align 4
  store ptr %0, ptr %5, align 8, !tbaa !25
  store ptr %1, ptr %6, align 8, !tbaa !28
  %9 = zext i1 %2 to i8
  store i8 %9, ptr %7, align 1, !tbaa !14
  store i32 %3, ptr %8, align 4, !tbaa !27
  %10 = load ptr, ptr %5, align 8, !tbaa !25
  %11 = load ptr, ptr %6, align 8, !tbaa !28
  %12 = load i8, ptr %7, align 1, !tbaa !14, !range !16, !noundef !17
  %13 = trunc i8 %12 to i1
  %14 = load i32, ptr %8, align 4, !tbaa !27
  %15 = call zeroext i1 @zend_parse_arg_str_ex(ptr noundef %10, ptr noundef %11, i1 noundef zeroext %13, i32 noundef %14, i1 noundef zeroext false)
  ret i1 %15
}

; Function Attrs: nounwind uwtable
define hidden void @zif_convert_uuencode(ptr noundef %0, ptr noundef %1) #0 {
  %3 = alloca ptr, align 8
  %4 = alloca ptr, align 8
  %5 = alloca ptr, align 8
  %6 = alloca i32, align 4
  %7 = alloca i32, align 4
  %8 = alloca i32, align 4
  %9 = alloca i32, align 4
  %10 = alloca i32, align 4
  %11 = alloca ptr, align 8
  %12 = alloca ptr, align 8
  %13 = alloca i32, align 4
  %14 = alloca ptr, align 8
  %15 = alloca i8, align 1
  %16 = alloca i8, align 1
  %17 = alloca i32, align 4
  %18 = alloca i32, align 4
  %19 = alloca ptr, align 8
  %20 = alloca ptr, align 8
  store ptr %0, ptr %3, align 8, !tbaa !23
  store ptr %1, ptr %4, align 8, !tbaa !25
  call void @llvm.lifetime.start.p0(i64 8, ptr %5) #11
  br label %21

21:                                               ; preds = %2
  call void @llvm.lifetime.start.p0(i64 4, ptr %6) #11
  store i32 0, ptr %6, align 4, !tbaa !27
  call void @llvm.lifetime.start.p0(i64 4, ptr %7) #11
  store i32 1, ptr %7, align 4, !tbaa !27
  call void @llvm.lifetime.start.p0(i64 4, ptr %8) #11
  store i32 1, ptr %8, align 4, !tbaa !27
  call void @llvm.lifetime.start.p0(i64 4, ptr %9) #11
  %22 = load ptr, ptr %3, align 8, !tbaa !23
  %23 = getelementptr inbounds nuw %struct._zend_execute_data, ptr %22, i32 0, i32 4
  %24 = getelementptr inbounds nuw %struct._zval_struct, ptr %23, i32 0, i32 2
  %25 = load i32, ptr %24, align 4, !tbaa !13
  store i32 %25, ptr %9, align 4, !tbaa !27
  call void @llvm.lifetime.start.p0(i64 4, ptr %10) #11
  store i32 0, ptr %10, align 4, !tbaa !27
  call void @llvm.lifetime.start.p0(i64 8, ptr %11) #11
  call void @llvm.lifetime.start.p0(i64 8, ptr %12) #11
  store ptr null, ptr %12, align 8, !tbaa !25
  call void @llvm.lifetime.start.p0(i64 4, ptr %13) #11
  store i32 0, ptr %13, align 4, !tbaa !27
  call void @llvm.lifetime.start.p0(i64 8, ptr %14) #11
  store ptr null, ptr %14, align 8, !tbaa !4
  call void @llvm.lifetime.start.p0(i64 1, ptr %15) #11
  store i8 0, ptr %15, align 1, !tbaa !14
  call void @llvm.lifetime.start.p0(i64 1, ptr %16) #11
  store i8 0, ptr %16, align 1, !tbaa !14
  call void @llvm.lifetime.start.p0(i64 4, ptr %17) #11
  store i32 0, ptr %17, align 4, !tbaa !27
  br label %26

26:                                               ; preds = %21
  %27 = load i32, ptr %9, align 4, !tbaa !27
  %28 = load i32, ptr %7, align 4, !tbaa !27
  %29 = icmp ult i32 %27, %28
  %30 = xor i1 %29, true
  %31 = xor i1 %30, true
  %32 = zext i1 %31 to i32
  %33 = sext i32 %32 to i64
  %34 = call i64 @llvm.expect.i64(i64 %33, i64 0)
  %35 = icmp ne i64 %34, 0
  br i1 %35, label %46, label %36

36:                                               ; preds = %26
  %37 = load i32, ptr %9, align 4, !tbaa !27
  %38 = load i32, ptr %8, align 4, !tbaa !27
  %39 = icmp ugt i32 %37, %38
  %40 = xor i1 %39, true
  %41 = xor i1 %40, true
  %42 = zext i1 %41 to i32
  %43 = sext i32 %42 to i64
  %44 = call i64 @llvm.expect.i64(i64 %43, i64 0)
  %45 = icmp ne i64 %44, 0
  br i1 %45, label %46, label %49

46:                                               ; preds = %36, %26
  %47 = load i32, ptr %7, align 4, !tbaa !27
  %48 = load i32, ptr %8, align 4, !tbaa !27
  call void @zend_wrong_parameters_count_error(i32 noundef %47, i32 noundef %48)
  store i32 1, ptr %17, align 4, !tbaa !27
  br label %113

49:                                               ; preds = %36
  %50 = load ptr, ptr %3, align 8, !tbaa !23
  %51 = getelementptr inbounds %struct._zval_struct, ptr %50, i64 4
  store ptr %51, ptr %11, align 8, !tbaa !25
  %52 = load i32, ptr %10, align 4, !tbaa !27
  %53 = add i32 %52, 1
  store i32 %53, ptr %10, align 4, !tbaa !27
  %54 = load i32, ptr %10, align 4, !tbaa !27
  %55 = load i32, ptr %7, align 4, !tbaa !27
  %56 = icmp ule i32 %54, %55
  br i1 %56, label %62, label %57

57:                                               ; preds = %49
  %58 = load i8, ptr %16, align 1, !tbaa !14, !range !16, !noundef !17
  %59 = trunc i8 %58 to i1
  %60 = zext i1 %59 to i32
  %61 = icmp eq i32 %60, 1
  br label %62

62:                                               ; preds = %57, %49
  %63 = phi i1 [ true, %49 ], [ %61, %57 ]
  call void @llvm.assume(i1 %63)
  %64 = load i32, ptr %10, align 4, !tbaa !27
  %65 = load i32, ptr %7, align 4, !tbaa !27
  %66 = icmp ugt i32 %64, %65
  br i1 %66, label %72, label %67

67:                                               ; preds = %62
  %68 = load i8, ptr %16, align 1, !tbaa !14, !range !16, !noundef !17
  %69 = trunc i8 %68 to i1
  %70 = zext i1 %69 to i32
  %71 = icmp eq i32 %70, 0
  br label %72

72:                                               ; preds = %67, %62
  %73 = phi i1 [ true, %62 ], [ %71, %67 ]
  call void @llvm.assume(i1 %73)
  %74 = load i8, ptr %16, align 1, !tbaa !14, !range !16, !noundef !17
  %75 = trunc i8 %74 to i1
  br i1 %75, label %76, label %88

76:                                               ; preds = %72
  %77 = load i32, ptr %10, align 4, !tbaa !27
  %78 = load i32, ptr %9, align 4, !tbaa !27
  %79 = icmp ugt i32 %77, %78
  %80 = xor i1 %79, true
  %81 = xor i1 %80, true
  %82 = zext i1 %81 to i32
  %83 = sext i32 %82 to i64
  %84 = call i64 @llvm.expect.i64(i64 %83, i64 0)
  %85 = icmp ne i64 %84, 0
  br i1 %85, label %86, label %87

86:                                               ; preds = %76
  br label %113

87:                                               ; preds = %76
  br label %88

88:                                               ; preds = %87, %72
  %89 = load ptr, ptr %11, align 8, !tbaa !25
  %90 = getelementptr inbounds nuw %struct._zval_struct, ptr %89, i32 1
  store ptr %90, ptr %11, align 8, !tbaa !25
  %91 = load ptr, ptr %11, align 8, !tbaa !25
  store ptr %91, ptr %12, align 8, !tbaa !25
  %92 = load ptr, ptr %12, align 8, !tbaa !25
  %93 = load i32, ptr %10, align 4, !tbaa !27
  %94 = call zeroext i1 @zend_parse_arg_str(ptr noundef %92, ptr noundef %5, i1 noundef zeroext false, i32 noundef %93)
  %95 = xor i1 %94, true
  %96 = xor i1 %95, true
  %97 = xor i1 %96, true
  %98 = zext i1 %97 to i32
  %99 = sext i32 %98 to i64
  %100 = call i64 @llvm.expect.i64(i64 %99, i64 0)
  %101 = icmp ne i64 %100, 0
  br i1 %101, label %102, label %103

102:                                              ; preds = %88
  store i32 4, ptr %13, align 4, !tbaa !27
  store i32 9, ptr %17, align 4, !tbaa !27
  br label %113

103:                                              ; preds = %88
  %104 = load i32, ptr %10, align 4, !tbaa !27
  %105 = load i32, ptr %8, align 4, !tbaa !27
  %106 = icmp eq i32 %104, %105
  br i1 %106, label %110, label %107

107:                                              ; preds = %103
  %108 = load i32, ptr %8, align 4, !tbaa !27
  %109 = icmp eq i32 %108, -1
  br label %110

110:                                              ; preds = %107, %103
  %111 = phi i1 [ true, %103 ], [ %109, %107 ]
  call void @llvm.assume(i1 %111)
  br label %112

112:                                              ; preds = %110
  br label %113

113:                                              ; preds = %112, %102, %86, %46
  %114 = load i32, ptr %17, align 4, !tbaa !27
  %115 = icmp ne i32 %114, 0
  %116 = xor i1 %115, true
  %117 = xor i1 %116, true
  %118 = zext i1 %117 to i32
  %119 = sext i32 %118 to i64
  %120 = call i64 @llvm.expect.i64(i64 %119, i64 0)
  %121 = icmp ne i64 %120, 0
  br i1 %121, label %122, label %128

122:                                              ; preds = %113
  %123 = load i32, ptr %17, align 4, !tbaa !27
  %124 = load i32, ptr %10, align 4, !tbaa !27
  %125 = load ptr, ptr %14, align 8, !tbaa !4
  %126 = load i32, ptr %13, align 4, !tbaa !27
  %127 = load ptr, ptr %12, align 8, !tbaa !25
  call void @zend_wrong_parameter_error(i32 noundef %123, i32 noundef %124, ptr noundef %125, i32 noundef %126, ptr noundef %127)
  store i32 1, ptr %18, align 4
  br label %129

128:                                              ; preds = %113
  store i32 0, ptr %18, align 4
  br label %129

129:                                              ; preds = %128, %122
  call void @llvm.lifetime.end.p0(i64 4, ptr %17) #11
  call void @llvm.lifetime.end.p0(i64 1, ptr %16) #11
  call void @llvm.lifetime.end.p0(i64 1, ptr %15) #11
  call void @llvm.lifetime.end.p0(i64 8, ptr %14) #11
  call void @llvm.lifetime.end.p0(i64 4, ptr %13) #11
  call void @llvm.lifetime.end.p0(i64 8, ptr %12) #11
  call void @llvm.lifetime.end.p0(i64 8, ptr %11) #11
  call void @llvm.lifetime.end.p0(i64 4, ptr %10) #11
  call void @llvm.lifetime.end.p0(i64 4, ptr %9) #11
  call void @llvm.lifetime.end.p0(i64 4, ptr %8) #11
  call void @llvm.lifetime.end.p0(i64 4, ptr %7) #11
  call void @llvm.lifetime.end.p0(i64 4, ptr %6) #11
  %130 = load i32, ptr %18, align 4
  switch i32 %130, label %161 [
    i32 0, label %131
  ]

131:                                              ; preds = %129
  br label %132

132:                                              ; preds = %131
  br label %133

133:                                              ; preds = %132
  br label %134

134:                                              ; preds = %133
  br label %135

135:                                              ; preds = %134
  call void @llvm.lifetime.start.p0(i64 8, ptr %19) #11
  %136 = load ptr, ptr %4, align 8, !tbaa !25
  store ptr %136, ptr %19, align 8, !tbaa !25
  call void @llvm.lifetime.start.p0(i64 8, ptr %20) #11
  %137 = load ptr, ptr %5, align 8, !tbaa !11
  %138 = getelementptr inbounds nuw %struct._zend_string, ptr %137, i32 0, i32 3
  %139 = getelementptr inbounds [1 x i8], ptr %138, i64 0, i64 0
  %140 = load ptr, ptr %5, align 8, !tbaa !11
  %141 = getelementptr inbounds nuw %struct._zend_string, ptr %140, i32 0, i32 2
  %142 = load i64, ptr %141, align 8, !tbaa !22
  %143 = call ptr @php_uuencode(ptr noundef %139, i64 noundef %142)
  store ptr %143, ptr %20, align 8, !tbaa !11
  %144 = load ptr, ptr %20, align 8, !tbaa !11
  %145 = load ptr, ptr %19, align 8, !tbaa !25
  %146 = getelementptr inbounds nuw %struct._zval_struct, ptr %145, i32 0, i32 0
  store ptr %144, ptr %146, align 8, !tbaa !13
  %147 = load ptr, ptr %20, align 8, !tbaa !11
  %148 = getelementptr inbounds nuw %struct._zend_string, ptr %147, i32 0, i32 0
  %149 = getelementptr inbounds nuw %struct._zend_refcounted_h, ptr %148, i32 0, i32 1
  %150 = load i32, ptr %149, align 4, !tbaa !13
  %151 = call i32 @zval_gc_flags(i32 noundef %150)
  %152 = and i32 %151, 64
  %153 = icmp ne i32 %152, 0
  %154 = select i1 %153, i32 6, i32 262
  %155 = load ptr, ptr %19, align 8, !tbaa !25
  %156 = getelementptr inbounds nuw %struct._zval_struct, ptr %155, i32 0, i32 1
  store i32 %154, ptr %156, align 8, !tbaa !13
  call void @llvm.lifetime.end.p0(i64 8, ptr %20) #11
  call void @llvm.lifetime.end.p0(i64 8, ptr %19) #11
  br label %157

157:                                              ; preds = %135
  br label %158

158:                                              ; preds = %157
  store i32 1, ptr %18, align 4
  br label %161

159:                                              ; No predecessors!
  br label %160

160:                                              ; preds = %159
  store i32 0, ptr %18, align 4
  br label %161

161:                                              ; preds = %160, %158, %129
  call void @llvm.lifetime.end.p0(i64 8, ptr %5) #11
  %162 = load i32, ptr %18, align 4
  switch i32 %162, label %164 [
    i32 0, label %163
    i32 1, label %163
  ]

163:                                              ; preds = %161, %161
  ret void

164:                                              ; preds = %161
  unreachable
}